; Function Attrs: mustprogress uwtable
define hidden void @_ZN6Assimp19Discreet3DSExporter11WriteStringERK8aiString(ptr noundef nonnull align 8 dereferenceable(160) %0, ptr noundef nonnull readonly align 4 captures(none) dereferenceable(1028) %1) local_unnamed_addr #0 align 2 {
  %3 = load i32, ptr %1, align 4
  %.not = icmp eq i32 %3, 0
  br i1 %.not, label %.._crit_edge_crit_edge, label %.lr.ph

.._crit_edge_crit_edge:                           ; preds = %2
  %.phi.trans.insert = getelementptr inbounds nuw i8, ptr %0, i64 56
  %.pre10 = load i64, ptr %.phi.trans.insert, align 8
  br label %._crit_edge

.lr.ph:                                           ; preds = %2
  %4 = getelementptr inbounds nuw i8, ptr %1, i64 4
  %5 = getelementptr inbounds nuw i8, ptr %0, i64 56
  %6 = getelementptr inbounds nuw i8, ptr %0, i64 32
  %7 = getelementptr inbounds nuw i8, ptr %0, i64 40
  %.pre = load i64, ptr %5, align 8
  br label %24

._crit_edge:                                      ; preds = %_ZN6Assimp12StreamWriterILb0ELb0EE5PutI1Ea.exit8, %.._crit_edge_crit_edge
  %8 = phi i64 [ %.pre10, %.._crit_edge_crit_edge ], [ %39, %_ZN6Assimp12StreamWriterILb0ELb0EE5PutI1Ea.exit8 ]
  %9 = getelementptr inbounds nuw i8, ptr %0, i64 56
  %10 = add i64 %8, 1
  %11 = getelementptr inbounds nuw i8, ptr %0, i64 32
  %12 = getelementptr inbounds nuw i8, ptr %0, i64 40
  %13 = load ptr, ptr %12, align 8
  %14 = load ptr, ptr %11, align 8
  %15 = ptrtoint ptr %13 to i64
  %16 = ptrtoint ptr %14 to i64
  %17 = sub i64 %15, %16
  %.not.i.i = icmp ult i64 %10, %17
  br i1 %.not.i.i, label %_ZN6Assimp12StreamWriterILb0ELb0EE5PutI1Ea.exit, label %18

18:                                               ; preds = %._crit_edge
  tail call void @_ZNSt6vectorIhSaIhEE6resizeEm(ptr noundef nonnull align 8 dereferenceable(24) %11, i64 noundef %10)
  %.pre.i.i = load i64, ptr %9, align 8
  %.pre2.i.i = load ptr, ptr %11, align 8
  br label %_ZN6Assimp12StreamWriterILb0ELb0EE5PutI1Ea.exit

_ZN6Assimp12StreamWriterILb0ELb0EE5PutI1Ea.exit:  ; preds = %._crit_edge, %18
  %19 = phi ptr [ %.pre2.i.i, %18 ], [ %14, %._crit_edge ]
  %20 = phi i64 [ %.pre.i.i, %18 ], [ %8, %._crit_edge ]
  %21 = getelementptr inbounds nuw i8, ptr %19, i64 %20
  store i8 0, ptr %21, align 1
  %22 = load i64, ptr %9, align 8
  %23 = add i64 %22, 1
  store i64 %23, ptr %9, align 8
  ret void

24:                                               ; preds = %.lr.ph, %_ZN6Assimp12StreamWriterILb0ELb0EE5PutI1Ea.exit8
  %25 = phi i64 [ %.pre, %.lr.ph ], [ %39, %_ZN6Assimp12StreamWriterILb0ELb0EE5PutI1Ea.exit8 ]
  %.09 = phi i64 [ 0, %.lr.ph ], [ %40, %_ZN6Assimp12StreamWriterILb0ELb0EE5PutI1Ea.exit8 ]
  %26 = getelementptr inbounds nuw [1024 x i8], ptr %4, i64 0, i64 %.09
  %27 = load i8, ptr %26, align 1
  %28 = add i64 %25, 1
  %29 = load ptr, ptr %7, align 8
  %30 = load ptr, ptr %6, align 8
  %31 = ptrtoint ptr %29 to i64
  %32 = ptrtoint ptr %30 to i64
  %33 = sub i64 %31, %32
  %.not.i.i5 = icmp ult i64 %28, %33
  br i1 %.not.i.i5, label %_ZN6Assimp12StreamWriterILb0ELb0EE5PutI1Ea.exit8, label %34

34:                                               ; preds = %24
  tail call void @_ZNSt6vectorIhSaIhEE6resizeEm(ptr noundef nonnull align 8 dereferenceable(24) %6, i64 noundef %28)
  %.pre.i.i6 = load i64, ptr %5, align 8
  %.pre2.i.i7 = load ptr, ptr %6, align 8
  br label %_ZN6Assimp12StreamWriterILb0ELb0EE5PutI1Ea.exit8

_ZN6Assimp12StreamWriterILb0ELb0EE5PutI1Ea.exit8: ; preds = %24, %34
  %35 = phi ptr [ %.pre2.i.i7, %34 ], [ %30, %24 ]
  %36 = phi i64 [ %.pre.i.i6, %34 ], [ %25, %24 ]
  %37 = getelementptr inbounds nuw i8, ptr %35, i64 %36
  store i8 %27, ptr %37, align 1
  %38 = load i64, ptr %5, align 8
  %39 = add i64 %38, 1
  store i64 %39, ptr %5, align 8
  %40 = add nuw nsw i64 %.09, 1
  %41 = load i32, ptr %1, align 4
  %42 = zext i32 %41 to i64
  %43 = icmp samesign ult i64 %40, %42
  br i1 %43, label %24, label %._crit_edge, !llvm.loop !24
}